; Function Attrs: nounwind uwtable
define i32 @FT_Get_Var_Design_Coordinates(ptr noundef %0, i32 noundef %1, ptr noundef %2) local_unnamed_addr #0 {
  %.not = icmp eq ptr %2, null
  br i1 %.not, label %ft_face_get_mm_service.exit.thread, label %4

4:                                                ; preds = %3
  %.not.i = icmp eq ptr %0, null
  br i1 %.not.i, label %ft_face_get_mm_service.exit.thread, label %5

5:                                                ; preds = %4
  %6 = getelementptr inbounds i8, ptr %0, i64 16
  %7 = load i64, ptr %6, align 8
  %8 = and i64 %7, 256
  %.not24.i = icmp eq i64 %8, 0
  br i1 %.not24.i, label %ft_face_get_mm_service.exit.thread, label %9

9:                                                ; preds = %5
  %10 = getelementptr inbounds i8, ptr %0, i64 240
  %11 = load ptr, ptr %10, align 8
  %12 = getelementptr inbounds i8, ptr %11, i64 64
  %13 = load ptr, ptr %12, align 8
  %magicptr.i = ptrtoint ptr %13 to i64
  switch i64 %magicptr.i, label %.fold.split.i [
    i64 -2, label %ft_face_get_mm_service.exit.thread
    i64 0, label %14
  ]

14:                                               ; preds = %9
  %15 = getelementptr inbounds i8, ptr %0, i64 176
  %16 = load ptr, ptr %15, align 8
  %17 = load ptr, ptr %16, align 8
  %18 = getelementptr inbounds i8, ptr %17, i64 64
  %19 = load ptr, ptr %18, align 8
  %.not25.i = icmp eq ptr %19, null
  br i1 %.not25.i, label %22, label %20

20:                                               ; preds = %14
  %21 = tail call ptr %19(ptr noundef nonnull %16, ptr noundef nonnull @.str) #3
  %.pre.i = load ptr, ptr %10, align 8
  br label %22

22:                                               ; preds = %20, %14
  %23 = phi ptr [ %.pre.i, %20 ], [ %11, %14 ]
  %.0.i = phi ptr [ %21, %20 ], [ null, %14 ]
  %.not26.i = icmp eq ptr %.0.i, null
  %24 = select i1 %.not26.i, ptr inttoptr (i64 -2 to ptr), ptr %.0.i
  %25 = getelementptr inbounds i8, ptr %23, i64 64
  store ptr %24, ptr %25, align 8
  br label %.fold.split.i

.fold.split.i:                                    ; preds = %9, %22
  %.019.i = phi ptr [ %.0.i, %22 ], [ %13, %9 ]
  %.not27.i = icmp eq ptr %.019.i, null
  br i1 %.not27.i, label %ft_face_get_mm_service.exit.thread, label %ft_face_get_mm_service.exit

ft_face_get_mm_service.exit:                      ; preds = %.fold.split.i
  %26 = getelementptr inbounds i8, ptr %.019.i, i64 48
  %27 = load ptr, ptr %26, align 8
  %.not12 = icmp eq ptr %27, null
  br i1 %.not12, label %ft_face_get_mm_service.exit.thread, label %28

28:                                               ; preds = %ft_face_get_mm_service.exit
  %29 = tail call i32 %27(ptr noundef nonnull %0, i32 noundef %1, ptr noundef nonnull %2) #3
  br label %ft_face_get_mm_service.exit.thread

ft_face_get_mm_service.exit.thread:               ; preds = %9, %.fold.split.i, %5, %4, %28, %ft_face_get_mm_service.exit, %3
  %.07 = phi i32 [ 6, %3 ], [ %29, %28 ], [ 6, %ft_face_get_mm_service.exit ], [ 6, %5 ], [ 35, %4 ], [ 6, %.fold.split.i ], [ 6, %9 ]
  ret i32 %.07
}